target datalayout = "e-m:e-p270:32:32-p271:32:32-p272:64:64-i64:64-i128:128-f80:128-n8:16:32:64-S128"
target triple = "x86_64-pc-linux-gnu"

@hf_rsl_ie_id = internal global i32 0, align 4
@hf_rsl_ie_length = internal global i32 0, align 4
@hf_rsl_dtxd = internal global i32 0, align 4
@hf_rsl_rxlev_full_up = internal global i32 0, align 4
@hf_rsl_rxlev_sub_up = internal global i32 0, align 4
@hf_rsl_rxqual_full_up = internal global i32 0, align 4
@hf_rsl_rxqual_sub_up = internal global i32 0, align 4
@ett_ie_uplink_meas = internal global i32 0, align 4
@.str.818 = private unnamed_addr constant [23 x i8] c"Uplink Measurements IE\00", align 1

; Function Attrs: null_pointer_is_valid sspstrong uwtable
define internal i32 @dissect_rsl_ie_uplik_meas(ptr noundef %0, ptr noundef %1, ptr noundef %2, i32 noundef %3, i1 noundef zeroext %4) #0 {
  %6 = alloca i32, align 4
  %7 = alloca ptr, align 8
  %8 = alloca ptr, align 8
  %9 = alloca ptr, align 8
  %10 = alloca i32, align 4
  %11 = alloca i8, align 1
  %12 = alloca ptr, align 8
  %13 = alloca ptr, align 8
  %14 = alloca i32, align 4
  %15 = alloca i32, align 4
  %16 = alloca i8, align 1
  %17 = alloca i32, align 4
  store ptr %0, ptr %7, align 8
  store ptr %1, ptr %8, align 8
  store ptr %2, ptr %9, align 8
  store i32 %3, ptr %10, align 4
  %18 = zext i1 %4 to i8
  store i8 %18, ptr %11, align 1
  call void @llvm.lifetime.start.p0(i64 8, ptr %12) #6
  call void @llvm.lifetime.start.p0(i64 8, ptr %13) #6
  call void @llvm.lifetime.start.p0(i64 4, ptr %14) #6
  call void @llvm.lifetime.start.p0(i64 4, ptr %15) #6
  call void @llvm.lifetime.start.p0(i64 1, ptr %16) #6
  %19 = load i8, ptr %11, align 1, !range !6, !noundef !7
  %20 = trunc i8 %19 to i1
  %21 = zext i1 %20 to i32
  %22 = icmp eq i32 %21, 0
  br i1 %22, label %23, label %33

23:                                               ; preds = %5
  %24 = load ptr, ptr %7, align 8
  %25 = load i32, ptr %10, align 4
  %26 = call zeroext i8 @tvb_get_uint8(ptr noundef %24, i32 noundef %25)
  store i8 %26, ptr %16, align 1
  %27 = load i8, ptr %16, align 1
  %28 = zext i8 %27 to i32
  %29 = icmp ne i32 %28, 25
  br i1 %29, label %30, label %32

30:                                               ; preds = %23
  %31 = load i32, ptr %10, align 4
  store i32 %31, ptr %6, align 4
  store i32 1, ptr %17, align 4
  br label %95

32:                                               ; preds = %23
  br label %33

33:                                               ; preds = %32, %5
  %34 = load ptr, ptr %9, align 8
  %35 = load ptr, ptr %7, align 8
  %36 = load i32, ptr %10, align 4
  %37 = load i32, ptr @ett_ie_uplink_meas, align 4
  %38 = call ptr @proto_tree_add_subtree(ptr noundef %34, ptr noundef %35, i32 noundef %36, i32 noundef 0, i32 noundef %37, ptr noundef %12, ptr noundef @.str.818)
  store ptr %38, ptr %13, align 8
  %39 = load ptr, ptr %13, align 8
  %40 = load i32, ptr @hf_rsl_ie_id, align 4
  %41 = load ptr, ptr %7, align 8
  %42 = load i32, ptr %10, align 4
  %43 = call ptr @proto_tree_add_item(ptr noundef %39, i32 noundef %40, ptr noundef %41, i32 noundef %42, i32 noundef 1, i32 noundef 0)
  %44 = load i32, ptr %10, align 4
  %45 = add i32 %44, 1
  store i32 %45, ptr %10, align 4
  %46 = load ptr, ptr %7, align 8
  %47 = load i32, ptr %10, align 4
  %48 = call zeroext i8 @tvb_get_uint8(ptr noundef %46, i32 noundef %47)
  %49 = zext i8 %48 to i32
  store i32 %49, ptr %14, align 4
  %50 = load ptr, ptr %12, align 8
  %51 = load i32, ptr %14, align 4
  %52 = add i32 %51, 2
  call void @proto_item_set_len(ptr noundef %50, i32 noundef %52)
  %53 = load ptr, ptr %13, align 8
  %54 = load i32, ptr @hf_rsl_ie_length, align 4
  %55 = load ptr, ptr %7, align 8
  %56 = load i32, ptr %10, align 4
  %57 = call ptr @proto_tree_add_item(ptr noundef %53, i32 noundef %54, ptr noundef %55, i32 noundef %56, i32 noundef 1, i32 noundef 0)
  %58 = load i32, ptr %10, align 4
  %59 = add i32 %58, 1
  store i32 %59, ptr %10, align 4
  %60 = load i32, ptr %10, align 4
  store i32 %60, ptr %15, align 4
  %61 = load ptr, ptr %13, align 8
  %62 = load i32, ptr @hf_rsl_dtxd, align 4
  %63 = load ptr, ptr %7, align 8
  %64 = load i32, ptr %10, align 4
  %65 = call ptr @proto_tree_add_item(ptr noundef %61, i32 noundef %62, ptr noundef %63, i32 noundef %64, i32 noundef 1, i32 noundef 0)
  %66 = load ptr, ptr %13, align 8
  %67 = load i32, ptr @hf_rsl_rxlev_full_up, align 4
  %68 = load ptr, ptr %7, align 8
  %69 = load i32, ptr %10, align 4
  %70 = call ptr @proto_tree_add_item(ptr noundef %66, i32 noundef %67, ptr noundef %68, i32 noundef %69, i32 noundef 1, i32 noundef 0)
  %71 = load i32, ptr %10, align 4
  %72 = add i32 %71, 1
  store i32 %72, ptr %10, align 4
  %73 = load ptr, ptr %13, align 8
  %74 = load i32, ptr @hf_rsl_rxlev_sub_up, align 4
  %75 = load ptr, ptr %7, align 8
  %76 = load i32, ptr %10, align 4
  %77 = call ptr @proto_tree_add_item(ptr noundef %73, i32 noundef %74, ptr noundef %75, i32 noundef %76, i32 noundef 1, i32 noundef 0)
  %78 = load i32, ptr %10, align 4
  %79 = add i32 %78, 1
  store i32 %79, ptr %10, align 4
  %80 = load ptr, ptr %13, align 8
  %81 = load i32, ptr @hf_rsl_rxqual_full_up, align 4
  %82 = load ptr, ptr %7, align 8
  %83 = load i32, ptr %10, align 4
  %84 = call ptr @proto_tree_add_item(ptr noundef %80, i32 noundef %81, ptr noundef %82, i32 noundef %83, i32 noundef 1, i32 noundef 0)
  %85 = load ptr, ptr %13, align 8
  %86 = load i32, ptr @hf_rsl_rxqual_sub_up, align 4
  %87 = load ptr, ptr %7, align 8
  %88 = load i32, ptr %10, align 4
  %89 = call ptr @proto_tree_add_item(ptr noundef %85, i32 noundef %86, ptr noundef %87, i32 noundef %88, i32 noundef 1, i32 noundef 0)
  %90 = load i32, ptr %10, align 4
  %91 = add i32 %90, 1
  store i32 %91, ptr %10, align 4
  %92 = load i32, ptr %15, align 4
  %93 = load i32, ptr %14, align 4
  %94 = add i32 %92, %93
  store i32 %94, ptr %6, align 4
  store i32 1, ptr %17, align 4
  br label %95

95:                                               ; preds = %33, %30
  call void @llvm.lifetime.end.p0(i64 1, ptr %16) #6
  call void @llvm.lifetime.end.p0(i64 4, ptr %15) #6
  call void @llvm.lifetime.end.p0(i64 4, ptr %14) #6
  call void @llvm.lifetime.end.p0(i64 8, ptr %13) #6
  call void @llvm.lifetime.end.p0(i64 8, ptr %12) #6
  %96 = load i32, ptr %6, align 4
  ret i32 %96
}